; Function Attrs: mustprogress uwtable
define dso_local range(i32 0, 2) i32 @stbi_write_bmp(ptr noundef readonly captures(none) %0, i32 noundef %1, i32 noundef %2, i32 noundef %3, ptr noundef readonly captures(none) %4) local_unnamed_addr #4 {
  %6 = alloca %struct.stbi__write_context, align 8
  call void @llvm.lifetime.start.p0(i64 88, ptr nonnull %6) #35
  %7 = getelementptr inbounds nuw i8, ptr %6, i64 16
  call void @llvm.memset.p0.i64(ptr noundef nonnull align 8 dereferenceable(72) %7, i8 0, i64 72, i1 false)
  %8 = tail call noalias noundef ptr @fopen(ptr noundef readonly %0, ptr noundef nonnull @.str.84)
  store ptr @_ZL17stbi__stdio_writePvS_i, ptr %6, align 8, !tbaa !311
  %9 = getelementptr inbounds nuw i8, ptr %6, i64 8
  store ptr %8, ptr %9, align 8, !tbaa !313
  %.not6 = icmp eq ptr %8, null
  br i1 %.not6, label %13, label %10

10:                                               ; preds = %5
  %11 = call fastcc noundef i32 @_ZL19stbi_write_bmp_coreP19stbi__write_contextiiiPKv(ptr noundef %6, i32 noundef %1, i32 noundef %2, i32 noundef %3, ptr noundef %4)
  %.val = load ptr, ptr %9, align 8, !tbaa !313
  %12 = call i32 @fclose(ptr noundef %.val)
  br label %13

13:                                               ; preds = %5, %10
  %.0 = phi i32 [ %11, %10 ], [ 0, %5 ]
  call void @llvm.lifetime.end.p0(i64 88, ptr nonnull %6) #35
  ret i32 %.0
}